target datalayout = "e-m:e-p270:32:32-p271:32:32-p272:64:64-i64:64-i128:128-f80:128-n8:16:32:64-S128"
target triple = "x86_64-pc-linux-gnu"

; Function Attrs: nounwind uwtable
define dso_local void @addReplyBulkLongLong(ptr noundef %0, i64 noundef %1) #0 {
  %3 = alloca ptr, align 8
  %4 = alloca i64, align 8
  %5 = alloca [64 x i8], align 16
  %6 = alloca i32, align 4
  store ptr %0, ptr %3, align 8, !tbaa !24
  store i64 %1, ptr %4, align 8, !tbaa !155
  call void @llvm.lifetime.start.p0(i64 64, ptr %5) #16
  call void @llvm.lifetime.start.p0(i64 4, ptr %6) #16
  %7 = getelementptr inbounds [64 x i8], ptr %5, i64 0, i64 0
  %8 = load i64, ptr %4, align 8, !tbaa !155
  %9 = call i32 @ll2string(ptr noundef %7, i64 noundef 64, i64 noundef %8)
  store i32 %9, ptr %6, align 4, !tbaa !19
  %10 = load ptr, ptr %3, align 8, !tbaa !24
  %11 = getelementptr inbounds [64 x i8], ptr %5, i64 0, i64 0
  %12 = load i32, ptr %6, align 4, !tbaa !19
  %13 = sext i32 %12 to i64
  call void @addReplyBulkCBuffer(ptr noundef %10, ptr noundef %11, i64 noundef %13)
  call void @llvm.lifetime.end.p0(i64 4, ptr %6) #16
  call void @llvm.lifetime.end.p0(i64 64, ptr %5) #16
  ret void
}