; Function Attrs: nounwind uwtable
define dso_local void @addReplyBulkLongLong(ptr noundef %0, i64 noundef %1) local_unnamed_addr #0 {
  %3 = alloca [64 x i8], align 16
  call void @llvm.lifetime.start.p0(i64 64, ptr nonnull %3) #26
  %4 = call i32 @ll2string(ptr noundef nonnull %3, i64 noundef 64, i64 noundef %1) #26
  %5 = sext i32 %4 to i64
  call void @addReplyBulkCBuffer(ptr noundef %0, ptr noundef nonnull %3, i64 noundef %5)
  call void @llvm.lifetime.end.p0(i64 64, ptr nonnull %3) #26
  ret void
}